; Function Attrs: nounwind uwtable
define range(i32 0, 2) i32 @Abc_MfsSatAddXor(ptr noundef %0, i32 noundef %1, i32 noundef %2, i32 noundef %3) local_unnamed_addr #0 {
  %5 = alloca [3 x i32], align 4
  call void @llvm.lifetime.start.p0(i64 12, ptr nonnull %5) #5
  %6 = shl nsw i32 %1, 1
  %7 = or disjoint i32 %6, 1
  store i32 %7, ptr %5, align 4, !tbaa !3
  %8 = shl nsw i32 %2, 1
  %9 = or disjoint i32 %8, 1
  %10 = getelementptr inbounds nuw i8, ptr %5, i64 4
  store i32 %9, ptr %10, align 4, !tbaa !3
  %11 = shl nsw i32 %3, 1
  %12 = or disjoint i32 %11, 1
  %13 = getelementptr inbounds nuw i8, ptr %5, i64 8
  store i32 %12, ptr %13, align 4, !tbaa !3
  %14 = getelementptr inbounds nuw i8, ptr %5, i64 12
  %15 = call i32 @sat_solver_addclause(ptr noundef %0, ptr noundef nonnull %5, ptr noundef nonnull %14) #5
  %.not = icmp eq i32 %15, 0
  br i1 %.not, label %22, label %16

16:                                               ; preds = %4
  store i32 %7, ptr %5, align 4, !tbaa !3
  store i32 %8, ptr %10, align 4, !tbaa !3
  store i32 %11, ptr %13, align 4, !tbaa !3
  %17 = call i32 @sat_solver_addclause(ptr noundef %0, ptr noundef nonnull %5, ptr noundef nonnull %14) #5
  %.not16 = icmp eq i32 %17, 0
  br i1 %.not16, label %22, label %18

18:                                               ; preds = %16
  store i32 %6, ptr %5, align 4, !tbaa !3
  store i32 %9, ptr %10, align 4, !tbaa !3
  store i32 %11, ptr %13, align 4, !tbaa !3
  %19 = call i32 @sat_solver_addclause(ptr noundef %0, ptr noundef nonnull %5, ptr noundef nonnull %14) #5
  %.not17 = icmp eq i32 %19, 0
  br i1 %.not17, label %22, label %20

20:                                               ; preds = %18
  store i32 %6, ptr %5, align 4, !tbaa !3
  store i32 %8, ptr %10, align 4, !tbaa !3
  store i32 %12, ptr %13, align 4, !tbaa !3
  %21 = call i32 @sat_solver_addclause(ptr noundef %0, ptr noundef nonnull %5, ptr noundef nonnull %14) #5
  %.not18 = icmp ne i32 %21, 0
  %. = zext i1 %.not18 to i32
  br label %22

22:                                               ; preds = %20, %18, %16, %4
  %.0 = phi i32 [ 0, %4 ], [ 0, %16 ], [ 0, %18 ], [ %., %20 ]
  call void @llvm.lifetime.end.p0(i64 12, ptr nonnull %5) #5
  ret i32 %.0
}